(dp1
S'sg_version_data'
p2
(dp3
S'code'
p4
S'v2.2.0'
p5
sS'description'
p6
S'Rebranded to ShotGrid.'
p7
sS'tags'
p8
(lp9
sS'sg_payload'
p10
(dp11
S'name'
p12
S'tk-framework-editorial_v2.2.0.zip'
p13
sS'url'
p14
S'https://s3-proxy.shotgunstudio.com/d18c13bf0e59a9a82f18be518a1b6b508bcbd774/6c1722857995cd83de2966d0b596a3bfaaad0c7f/tk-framework-editorial_v2.2.0.zip?response-content-disposition=filename%3D%22tk-framework-editorial_v2.2.0.zip%22&x-amz-meta-user-id=25200&x-amz-meta-user-type=ApiUser&X-Amz-Algorithm=AWS4-HMAC-SHA256&X-Amz-Credential=ASIAYJG6Z4JISHGVMR7R%2F20210604%2Fus-west-2%2Fs3%2Faws4_request&X-Amz-Date=20210604T192129Z&X-Amz-Expires=900&X-Amz-SignedHeaders=host&X-Amz-Security-Token=FwoGZXIvYXdzEHQaDNjWTKhFcKZpTl3kVSKvAbFNelF%2F%2BpEmufHOKv9s3YRBfkk4zG2fP4DryM3ALw3vJS1UPccuyIe90UwGu4%2Bbr39SPeWY6s6SpG5dR8%2Ba%2BHrTBg%2BLP79CX82QvedRaCdodkO%2BCB%2BKyOa%2Bg%2F7gWkd4ZjN5scwB05Dx1yrVsCh9wo3ikdzLaXEcFnkynfMkBf9hDZaPLaLjjJYBF9OQvnB6x1KResbvtEQilX4XeQvbzPy%2BTDWIgaLJFWnA9LD5FLcoserphQYyLWDt%2FKLBw2y4bceNcTE%2BwX9BJAPSeN1WHKD%2FQx6dIkKHVgA%2FZDvIvztSmnesaw%3D%3D&X-Amz-Signature=7ea47776c5a738496294a0b78a98a22d45d94a772efc224be86d7b50676f5a4d'
p15
sS'content_type'
p16
S'application/zip'
p17
sS'type'
p18
S'Attachment'
p19
sS'id'
p20
I25721
sS'link_type'
p21
S'upload'
p22
ssS'sg_status_list'
p23
S'rev'
p24
sS'sg_detailed_release_notes'
p25
NsS'sg_documentation'
p26
NsS'type'
p27
S'CustomNonProjectEntity09'
p28
sS'id'
p29
I1668
ssS'sg_bundle_data'
p30
(dp31
S'sg_status_list'
p32
S'hidden'
p33
sS'type'
p34
S'CustomNonProjectEntity13'
p35
sS'id'
p36
I9
sS'sg_system_name'
p37
S'tk-framework-editorial'
p38
sS'sg_deprecation_message'
p39
Nss.